(lp0
(lp1
S'FastEthernet4'
p2
aS'2826362388'
p3
aS'4659251'
p4
aS'2885500772'
p5
aS'5390682'
p6
aa(lp7
S'FastEthernet4'
p8
aS'2826370737'
p9
aS'4659287'
p10
aS'2885511910'
p11
aS'5390716'
p12
aa(lp13
S'FastEthernet4'
p14
aS'2826381025'
p15
aS'4659337'
p16
aS'2885524407'
p17
aS'5390764'
p18
aa(lp19
S'FastEthernet4'
p20
aS'2984972715'
p21
aS'4854758'
p22
aS'3048913134'
p23
aS'5594357'
p24
aa(lp25
S'FastEthernet4'
p26
aS'3401568557'
p27
aS'5170396'
p28
aS'3466484105'
p29
aS'5909957'
p30
aa(lp31
S'FastEthernet4'
p32
aS'4141772322'
p33
aS'5728498'
p34
aS'4208530024'
p35
aS'6489277'
p36
aa(lp37
S'FastEthernet4'
p38
aS'542130168'
p39
aS'6250272'
p40
aS'610793852'
p41
aS'6997409'
p42
aa(lp43
S'FastEthernet4'
p44
aS'542153637'
p45
aS'6250491'
p46
aS'610834349'
p47
aS'6997715'
p48
aa(lp49
S'FastEthernet4'
p50
aS'542161885'
p51
aS'6250524'
p52
aS'610845331'
p53
aS'6997746'
p54
aa(lp55
S'FastEthernet4'
p56
aS'542203966'
p57
aS'6250970'
p58
aS'610920823'
p59
aS'6998378'
p60
aa(lp61
S'FastEthernet4'
p62
aS'542221914'
p63
aS'6251110'
p64
aS'610943958'
p65
aS'6998523'
p66
aa(lp67
S'FastEthernet4'
p68
aS'542259387'
p69
aS'6251471'
p70
aS'611006334'
p71
aS'6999019'
p72
aa.